target datalayout = "e-m:e-p270:32:32-p271:32:32-p272:64:64-i64:64-i128:128-f80:128-n8:16:32:64-S128"
target triple = "x86_64-pc-linux-gnu"

%struct.FFIOContext = type { %struct.AVIOContext, ptr, i32, i32, i64, i64, i64, i64, i32, i32, i32, i64 }
%struct.AVIOContext = type { ptr, ptr, i32, ptr, ptr, ptr, ptr, ptr, ptr, i64, i32, i32, i32, i32, i32, i64, ptr, ptr, ptr, ptr, i32, i32, ptr, ptr, ptr, i32, ptr, i64, i64 }

; Function Attrs: nounwind uwtable
define i32 @ff_av1_filter_obus_buf(ptr noundef %0, ptr noundef %1, ptr noundef %2, ptr noundef %3) #0 {
  %5 = alloca i32, align 4
  %6 = alloca ptr, align 8
  %7 = alloca ptr, align 8
  %8 = alloca ptr, align 8
  %9 = alloca ptr, align 8
  %10 = alloca %struct.FFIOContext, align 8
  %11 = alloca ptr, align 8
  %12 = alloca i32, align 4
  %13 = alloca i32, align 4
  %14 = alloca i32, align 4
  %15 = alloca i32, align 4
  store ptr %0, ptr %6, align 8, !tbaa !9
  store ptr %1, ptr %7, align 8, !tbaa !17
  store ptr %2, ptr %8, align 8, !tbaa !13
  store ptr %3, ptr %9, align 8, !tbaa !13
  call void @llvm.lifetime.start.p0(i64 280, ptr %10) #7
  call void @llvm.lifetime.start.p0(i64 8, ptr %11) #7
  call void @llvm.lifetime.start.p0(i64 4, ptr %12) #7
  call void @llvm.lifetime.start.p0(i64 4, ptr %13) #7
  call void @llvm.lifetime.start.p0(i64 4, ptr %14) #7
  %16 = load ptr, ptr %6, align 8, !tbaa !9
  %17 = load ptr, ptr %8, align 8, !tbaa !13
  %18 = load i32, ptr %17, align 4, !tbaa !11
  %19 = call i32 @av1_filter_obus(ptr noundef null, ptr noundef %16, i32 noundef %18, ptr noundef %13)
  store i32 %19, ptr %14, align 4, !tbaa !11
  store i32 %19, ptr %12, align 4, !tbaa !11
  %20 = load i32, ptr %14, align 4, !tbaa !11
  %21 = icmp slt i32 %20, 0
  br i1 %21, label %22, label %24

22:                                               ; preds = %4
  %23 = load i32, ptr %14, align 4, !tbaa !11
  store i32 %23, ptr %5, align 4
  store i32 1, ptr %15, align 4
  br label %59

24:                                               ; preds = %4
  %25 = load i32, ptr %13, align 4, !tbaa !11
  %26 = icmp sge i32 %25, 0
  br i1 %26, label %27, label %34

27:                                               ; preds = %24
  %28 = load ptr, ptr %6, align 8, !tbaa !9
  %29 = load ptr, ptr %7, align 8, !tbaa !17
  store ptr %28, ptr %29, align 8, !tbaa !9
  %30 = load i32, ptr %12, align 4, !tbaa !11
  %31 = load ptr, ptr %8, align 8, !tbaa !13
  store i32 %30, ptr %31, align 4, !tbaa !11
  %32 = load i32, ptr %13, align 4, !tbaa !11
  %33 = load ptr, ptr %9, align 8, !tbaa !13
  store i32 %32, ptr %33, align 4, !tbaa !11
  store i32 0, ptr %5, align 4
  store i32 1, ptr %15, align 4
  br label %59

34:                                               ; preds = %24
  %35 = load i32, ptr %12, align 4, !tbaa !11
  %36 = add nsw i32 %35, 64
  %37 = sext i32 %36 to i64
  %38 = call noalias ptr @av_malloc(i64 noundef %37)
  store ptr %38, ptr %11, align 8, !tbaa !9
  %39 = load ptr, ptr %11, align 8, !tbaa !9
  %40 = icmp ne ptr %39, null
  br i1 %40, label %42, label %41

41:                                               ; preds = %34
  store i32 -12, ptr %5, align 4
  store i32 1, ptr %15, align 4
  br label %59

42:                                               ; preds = %34
  %43 = load ptr, ptr %11, align 8, !tbaa !9
  %44 = load i32, ptr %12, align 4, !tbaa !11
  call void @ffio_init_write_context(ptr noundef %10, ptr noundef %43, i32 noundef %44)
  %45 = getelementptr inbounds nuw %struct.FFIOContext, ptr %10, i32 0, i32 0
  %46 = load ptr, ptr %6, align 8, !tbaa !9
  %47 = load ptr, ptr %8, align 8, !tbaa !13
  %48 = load i32, ptr %47, align 4, !tbaa !11
  %49 = call i32 @av1_filter_obus(ptr noundef %45, ptr noundef %46, i32 noundef %48, ptr noundef null)
  store i32 %49, ptr %14, align 4, !tbaa !11
  %50 = load ptr, ptr %11, align 8, !tbaa !9
  %51 = load i32, ptr %12, align 4, !tbaa !11
  %52 = sext i32 %51 to i64
  %53 = getelementptr inbounds i8, ptr %50, i64 %52
  call void @llvm.memset.p0.i64(ptr align 1 %53, i8 0, i64 64, i1 false)
  %54 = load ptr, ptr %11, align 8, !tbaa !9
  %55 = load ptr, ptr %7, align 8, !tbaa !17
  store ptr %54, ptr %55, align 8, !tbaa !9
  %56 = load i32, ptr %12, align 4, !tbaa !11
  %57 = load ptr, ptr %8, align 8, !tbaa !13
  store i32 %56, ptr %57, align 4, !tbaa !11
  %58 = load ptr, ptr %9, align 8, !tbaa !13
  store i32 0, ptr %58, align 4, !tbaa !11
  store i32 0, ptr %5, align 4
  store i32 1, ptr %15, align 4
  br label %59

59:                                               ; preds = %42, %41, %27, %22
  call void @llvm.lifetime.end.p0(i64 4, ptr %14) #7
  call void @llvm.lifetime.end.p0(i64 4, ptr %13) #7
  call void @llvm.lifetime.end.p0(i64 4, ptr %12) #7
  call void @llvm.lifetime.end.p0(i64 8, ptr %11) #7
  call void @llvm.lifetime.end.p0(i64 280, ptr %10) #7
  %60 = load i32, ptr %5, align 4
  ret i32 %60
}