; Function Attrs: nounwind uwtable
define range(i32 -2147483648, 1) i32 @ff_av1_filter_obus_buf(ptr noundef %0, ptr noundef writeonly captures(none) %1, ptr noundef captures(none) %2, ptr noundef writeonly captures(none) %3) local_unnamed_addr #0 {
  %5 = alloca %struct.FFIOContext, align 8
  %6 = alloca i32, align 4
  call void @llvm.lifetime.start.p0(i64 280, ptr nonnull %5) #6
  call void @llvm.lifetime.start.p0(i64 4, ptr nonnull %6) #6
  %7 = load i32, ptr %2, align 4, !tbaa !10
  %8 = call fastcc i32 @av1_filter_obus(ptr noundef null, ptr noundef %0, i32 noundef %7, ptr noundef nonnull %6)
  %9 = icmp slt i32 %8, 0
  br i1 %9, label %22, label %10

10:                                               ; preds = %4
  %11 = load i32, ptr %6, align 4, !tbaa !10
  %12 = icmp sgt i32 %11, -1
  br i1 %12, label %.sink.split, label %13

13:                                               ; preds = %10
  %14 = add nuw nsw i32 %8, 64
  %15 = zext nneg i32 %14 to i64
  %16 = call noalias ptr @av_malloc(i64 noundef %15) #6
  %.not = icmp eq ptr %16, null
  br i1 %.not, label %22, label %17

17:                                               ; preds = %13
  call void @ffio_init_write_context(ptr noundef nonnull %5, ptr noundef nonnull %16, i32 noundef %8) #6
  %18 = load i32, ptr %2, align 4, !tbaa !10
  %19 = call fastcc i32 @av1_filter_obus(ptr noundef nonnull %5, ptr noundef %0, i32 noundef %18, ptr noundef null)
  %20 = zext nneg i32 %8 to i64
  %21 = getelementptr inbounds nuw i8, ptr %16, i64 %20
  call void @llvm.memset.p0.i64(ptr noundef nonnull align 1 dereferenceable(64) %21, i8 0, i64 64, i1 false)
  br label %.sink.split

.sink.split:                                      ; preds = %10, %17
  %.sink24 = phi ptr [ %16, %17 ], [ %0, %10 ]
  %.sink = phi i32 [ 0, %17 ], [ %11, %10 ]
  store ptr %.sink24, ptr %1, align 8, !tbaa !12
  store i32 %8, ptr %2, align 4, !tbaa !10
  store i32 %.sink, ptr %3, align 4, !tbaa !10
  br label %22

22:                                               ; preds = %.sink.split, %13, %4
  %.0 = phi i32 [ %8, %4 ], [ -12, %13 ], [ 0, %.sink.split ]
  call void @llvm.lifetime.end.p0(i64 4, ptr nonnull %6) #6
  call void @llvm.lifetime.end.p0(i64 280, ptr nonnull %5) #6
  ret i32 %.0
}